target datalayout = "e-m:e-p270:32:32-p271:32:32-p272:64:64-i64:64-i128:128-f80:128-n8:16:32:64-S128"
target triple = "x86_64-pc-linux-gnu"

%"class.google::protobuf::internal::RepeatedPtrFieldBase" = type { ptr, i32, i32, ptr }
%class.anon.87 = type { i8 }

@_ZZN6google8protobuf8internal24RepeatedStringTypeTraits23GetDefaultRepeatedFieldB5cxx11EvE8instanceB5cxx11 = internal global ptr null, align 8
@_ZGVZN6google8protobuf8internal24RepeatedStringTypeTraits23GetDefaultRepeatedFieldB5cxx11EvE8instanceB5cxx11 = internal global i64 0, align 8

; Function Attrs: inlinehint mustprogress nounwind uwtable
define linkonce_odr hidden noundef ptr @_ZZN6google8protobuf8internal16OnShutdownDeleteINS0_16RepeatedPtrFieldINSt7__cxx1112basic_stringIcSt11char_traitsIcESaIcEEEEEEEPT_SC_ENKUlPKvE_cvPFvSE_EEv(ptr noundef nonnull align 1 dereferenceable(1) %0) #14 comdat align 2 {
  %2 = alloca ptr, align 8
  store ptr %0, ptr %2, align 8, !tbaa !39
  ret ptr @_ZZN6google8protobuf8internal16OnShutdownDeleteINS0_16RepeatedPtrFieldINSt7__cxx1112basic_stringIcSt11char_traitsIcESaIcEEEEEEEPT_SC_ENUlPKvE_8__invokeESE_
}

; Function Attrs: mustprogress nounwind uwtable
define linkonce_odr hidden void @_ZN6google8protobuf8internal20RepeatedPtrFieldBaseC2Ev(ptr noundef nonnull align 8 dereferenceable(24) %0) unnamed_addr #4 comdat align 2 {
  %2 = alloca ptr, align 8
  store ptr %0, ptr %2, align 8, !tbaa !333
  %3 = load ptr, ptr %2, align 8
  %4 = getelementptr inbounds nuw %"class.google::protobuf::internal::RepeatedPtrFieldBase", ptr %3, i32 0, i32 0
  store ptr null, ptr %4, align 8, !tbaa !678
  %5 = getelementptr inbounds nuw %"class.google::protobuf::internal::RepeatedPtrFieldBase", ptr %3, i32 0, i32 1
  store i32 0, ptr %5, align 8, !tbaa !338
  %6 = getelementptr inbounds nuw %"class.google::protobuf::internal::RepeatedPtrFieldBase", ptr %3, i32 0, i32 2
  store i32 0, ptr %6, align 4, !tbaa !679
  %7 = getelementptr inbounds nuw %"class.google::protobuf::internal::RepeatedPtrFieldBase", ptr %3, i32 0, i32 3
  store ptr null, ptr %7, align 8, !tbaa !335
  ret void
}

; Function Attrs: mustprogress uwtable
define linkonce_odr hidden noundef ptr @_ZN6google8protobuf8internal16OnShutdownDeleteINS0_16RepeatedPtrFieldINSt7__cxx1112basic_stringIcSt11char_traitsIcESaIcEEEEEEEPT_SC_(ptr noundef %0) #6 comdat {
  %2 = alloca ptr, align 8
  %3 = alloca %class.anon.87, align 1
  store ptr %0, ptr %2, align 8, !tbaa !301
  call void @llvm.lifetime.start.p0(i64 1, ptr %3) #3
  %4 = call noundef ptr @_ZZN6google8protobuf8internal16OnShutdownDeleteINS0_16RepeatedPtrFieldINSt7__cxx1112basic_stringIcSt11char_traitsIcESaIcEEEEEEEPT_SC_ENKUlPKvE_cvPFvSE_EEv(ptr noundef nonnull align 1 dereferenceable(1) %3) #3
  %5 = load ptr, ptr %2, align 8, !tbaa !301
  call void @_ZN6google8protobuf8internal13OnShutdownRunEPFvPKvES3_(ptr noundef %4, ptr noundef %5)
  call void @llvm.lifetime.end.p0(i64 1, ptr %3) #3
  %6 = load ptr, ptr %2, align 8, !tbaa !301
  ret ptr %6
}

; Function Attrs: mustprogress uwtable
define available_externally void @_ZN6google8protobuf16RepeatedPtrFieldINSt7__cxx1112basic_stringIcSt11char_traitsIcESaIcEEEEC2Ev(ptr noundef nonnull align 8 dereferenceable(24) %0) unnamed_addr #6 align 2 {
  %2 = alloca ptr, align 8
  store ptr %0, ptr %2, align 8, !tbaa !301
  %3 = load ptr, ptr %2, align 8
  call void @_ZN6google8protobuf8internal20RepeatedPtrFieldBaseC2Ev(ptr noundef nonnull align 8 dereferenceable(24) %3)
  ret void
}

; Function Attrs: mustprogress uwtable
define hidden noundef ptr @_ZN6google8protobuf8internal24RepeatedStringTypeTraits23GetDefaultRepeatedFieldB5cxx11Ev() #6 align 2 personality ptr @__gxx_personality_v0 {
  %1 = alloca ptr, align 8
  %2 = alloca i32, align 4
  %3 = load atomic i8, ptr @_ZGVZN6google8protobuf8internal24RepeatedStringTypeTraits23GetDefaultRepeatedFieldB5cxx11EvE8instanceB5cxx11 acquire, align 8
  %4 = icmp eq i8 %3, 0
  br i1 %4, label %5, label %14, !prof !36

5:                                                ; preds = %0
  %6 = call i32 @__cxa_guard_acquire(ptr @_ZGVZN6google8protobuf8internal24RepeatedStringTypeTraits23GetDefaultRepeatedFieldB5cxx11EvE8instanceB5cxx11) #3
  %7 = icmp ne i32 %6, 0
  br i1 %7, label %8, label %14

8:                                                ; preds = %5
  %9 = invoke noalias noundef nonnull ptr @_Znwm(i64 noundef 24) #24
          to label %10 unwind label %16

10:                                               ; preds = %8
  invoke void @_ZN6google8protobuf16RepeatedPtrFieldINSt7__cxx1112basic_stringIcSt11char_traitsIcESaIcEEEEC2Ev(ptr noundef nonnull align 8 dereferenceable(24) %9)
          to label %11 unwind label %20

11:                                               ; preds = %10
  %12 = invoke noundef ptr @_ZN6google8protobuf8internal16OnShutdownDeleteINS0_16RepeatedPtrFieldINSt7__cxx1112basic_stringIcSt11char_traitsIcESaIcEEEEEEEPT_SC_(ptr noundef %9)
          to label %13 unwind label %16

13:                                               ; preds = %11
  store ptr %12, ptr @_ZZN6google8protobuf8internal24RepeatedStringTypeTraits23GetDefaultRepeatedFieldB5cxx11EvE8instanceB5cxx11, align 8, !tbaa !301
  call void @__cxa_guard_release(ptr @_ZGVZN6google8protobuf8internal24RepeatedStringTypeTraits23GetDefaultRepeatedFieldB5cxx11EvE8instanceB5cxx11) #3
  br label %14

14:                                               ; preds = %13, %5, %0
  %15 = load ptr, ptr @_ZZN6google8protobuf8internal24RepeatedStringTypeTraits23GetDefaultRepeatedFieldB5cxx11EvE8instanceB5cxx11, align 8, !tbaa !301
  ret ptr %15

16:                                               ; preds = %11, %8
  %17 = landingpad { ptr, i32 }
          cleanup
  %18 = extractvalue { ptr, i32 } %17, 0
  store ptr %18, ptr %1, align 8
  %19 = extractvalue { ptr, i32 } %17, 1
  store i32 %19, ptr %2, align 4
  br label %24

20:                                               ; preds = %10
  %21 = landingpad { ptr, i32 }
          cleanup
  %22 = extractvalue { ptr, i32 } %21, 0
  store ptr %22, ptr %1, align 8
  %23 = extractvalue { ptr, i32 } %21, 1
  store i32 %23, ptr %2, align 4
  call void @_ZdlPv(ptr noundef %9) #26
  br label %24

24:                                               ; preds = %20, %16
  call void @__cxa_guard_abort(ptr @_ZGVZN6google8protobuf8internal24RepeatedStringTypeTraits23GetDefaultRepeatedFieldB5cxx11EvE8instanceB5cxx11) #3
  br label %25

25:                                               ; preds = %24
  %26 = load ptr, ptr %1, align 8
  %27 = load i32, ptr %2, align 4
  %28 = insertvalue { ptr, i32 } poison, ptr %26, 0
  %29 = insertvalue { ptr, i32 } %28, i32 %27, 1
  resume { ptr, i32 } %29
}